target datalayout = "e-m:e-p270:32:32-p271:32:32-p272:64:64-i64:64-i128:128-f80:128-n8:16:32:64-S128"
target triple = "x86_64-pc-linux-gnu"

; Function Attrs: null_pointer_is_valid sspstrong uwtable
define ptr @ws_ascii_strcasestr(ptr noundef %0, ptr noundef %1) #0 {
  %3 = alloca ptr, align 8
  %4 = alloca ptr, align 8
  %5 = alloca ptr, align 8
  %6 = alloca i64, align 8
  %7 = alloca i64, align 8
  %8 = alloca i32, align 4
  store ptr %0, ptr %4, align 8
  store ptr %1, ptr %5, align 8
  call void @llvm.lifetime.start.p0(i64 8, ptr %6) #15
  %9 = load ptr, ptr %4, align 8
  %10 = call i64 @strlen(ptr noundef %9) #16
  store i64 %10, ptr %6, align 8
  call void @llvm.lifetime.start.p0(i64 8, ptr %7) #15
  %11 = load ptr, ptr %5, align 8
  %12 = call i64 @strlen(ptr noundef %11) #16
  store i64 %12, ptr %7, align 8
  br label %13

13:                                               ; preds = %26, %2
  %14 = load i64, ptr %6, align 8
  %15 = add i64 %14, -1
  store i64 %15, ptr %6, align 8
  %16 = load i64, ptr %7, align 8
  %17 = icmp uge i64 %14, %16
  br i1 %17, label %18, label %29

18:                                               ; preds = %13
  %19 = load ptr, ptr %4, align 8
  %20 = load ptr, ptr %5, align 8
  %21 = load i64, ptr %7, align 8
  %22 = call i32 @g_ascii_strncasecmp(ptr noundef %19, ptr noundef %20, i64 noundef %21)
  %23 = icmp ne i32 %22, 0
  br i1 %23, label %26, label %24

24:                                               ; preds = %18
  %25 = load ptr, ptr %4, align 8
  store ptr %25, ptr %3, align 8
  store i32 1, ptr %8, align 4
  br label %30

26:                                               ; preds = %18
  %27 = load ptr, ptr %4, align 8
  %28 = getelementptr i8, ptr %27, i32 1
  store ptr %28, ptr %4, align 8
  br label %13, !llvm.loop !22

29:                                               ; preds = %13
  store ptr null, ptr %3, align 8
  store i32 1, ptr %8, align 4
  br label %30

30:                                               ; preds = %29, %24
  call void @llvm.lifetime.end.p0(i64 8, ptr %7) #15
  call void @llvm.lifetime.end.p0(i64 8, ptr %6) #15
  %31 = load ptr, ptr %3, align 8
  ret ptr %31
}