; Function Attrs: null_pointer_is_valid sspstrong uwtable
define noundef ptr @ws_ascii_strcasestr(ptr noundef %0, ptr noundef %1) local_unnamed_addr #0 {
  %3 = tail call i64 @strlen(ptr noundef %0) #24
  %4 = tail call i64 @strlen(ptr noundef %1) #24
  %.not13 = icmp ult i64 %3, %4
  br i1 %.not13, label %._crit_edge, label %.lr.ph

.lr.ph:                                           ; preds = %2, %6
  %.in = phi i64 [ %7, %6 ], [ %3, %2 ]
  %.01014 = phi ptr [ %8, %6 ], [ %0, %2 ]
  %5 = tail call i32 @g_ascii_strncasecmp(ptr noundef %.01014, ptr noundef %1, i64 noundef %4)
  %.not12 = icmp eq i32 %5, 0
  br i1 %.not12, label %._crit_edge, label %6

6:                                                ; preds = %.lr.ph
  %7 = add i64 %.in, -1
  %8 = getelementptr i8, ptr %.01014, i64 1
  %.not = icmp ult i64 %7, %4
  br i1 %.not, label %._crit_edge, label %.lr.ph, !llvm.loop !22

._crit_edge:                                      ; preds = %.lr.ph, %6, %2
  %.0 = phi ptr [ null, %2 ], [ null, %6 ], [ %.01014, %.lr.ph ]
  ret ptr %.0
}